target datalayout = "e-m:e-p270:32:32-p271:32:32-p272:64:64-i64:64-i128:128-f80:128-n8:16:32:64-S128"
target triple = "x86_64-pc-linux-gnu"

%"struct.pybind11::error_scope" = type { ptr, ptr, ptr }

; Function Attrs: mustprogress uwtable
define linkonce_odr hidden void @_ZN8pybind1111error_scopeC2Ev(ptr noundef nonnull align 8 dereferenceable(24) %0) unnamed_addr #4 comdat align 2 {
  %2 = alloca ptr, align 8
  store ptr %0, ptr %2, align 8, !tbaa !66
  %3 = load ptr, ptr %2, align 8
  %4 = getelementptr inbounds nuw %"struct.pybind11::error_scope", ptr %3, i32 0, i32 0
  %5 = getelementptr inbounds nuw %"struct.pybind11::error_scope", ptr %3, i32 0, i32 1
  %6 = getelementptr inbounds nuw %"struct.pybind11::error_scope", ptr %3, i32 0, i32 2
  call void @PyErr_Fetch(ptr noundef %4, ptr noundef %5, ptr noundef %6)
  ret void
}

; Function Attrs: mustprogress uwtable
define internal void @_ZN8pybind116class_IN12_GLOBAL__N_111WithStatic1EJEE43dealloc_release_gil_before_calling_cpp_dtorERNS_6detail16value_and_holderE(ptr noundef nonnull align 8 dereferenceable(32) %0) #4 align 2 personality ptr @__gxx_personality_v0 {
  %2 = alloca ptr, align 8
  %3 = alloca %"struct.pybind11::error_scope", align 8
  %4 = alloca ptr, align 8
  %5 = alloca ptr, align 8
  %6 = alloca i32, align 4
  store ptr %0, ptr %2, align 8, !tbaa !802
  call void @llvm.lifetime.start.p0(i64 24, ptr %3) #24
  call void @_ZN8pybind1111error_scopeC2Ev(ptr noundef nonnull align 8 dereferenceable(24) %3)
  call void @llvm.lifetime.start.p0(i64 8, ptr %4) #24
  %7 = invoke ptr @PyEval_SaveThread()
          to label %8 unwind label %11

8:                                                ; preds = %1
  store ptr %7, ptr %4, align 8, !tbaa !299
  %9 = load ptr, ptr %2, align 8, !tbaa !802
  invoke void @_ZN8pybind116class_IN12_GLOBAL__N_111WithStatic1EJEE12dealloc_implERNS_6detail16value_and_holderE(ptr noundef nonnull align 8 dereferenceable(32) %9)
          to label %10 unwind label %15

10:                                               ; preds = %8
  br label %29

11:                                               ; preds = %29, %1
  %12 = landingpad { ptr, i32 }
          cleanup
  %13 = extractvalue { ptr, i32 } %12, 0
  store ptr %13, ptr %5, align 8
  %14 = extractvalue { ptr, i32 } %12, 1
  store i32 %14, ptr %6, align 4
  br label %32

15:                                               ; preds = %8
  %16 = landingpad { ptr, i32 }
          catch ptr null
  %17 = extractvalue { ptr, i32 } %16, 0
  store ptr %17, ptr %5, align 8
  %18 = extractvalue { ptr, i32 } %16, 1
  store i32 %18, ptr %6, align 4
  br label %19

19:                                               ; preds = %15
  %20 = load ptr, ptr %5, align 8
  %21 = call ptr @__cxa_begin_catch(ptr %20) #24
  %22 = load ptr, ptr %4, align 8, !tbaa !299
  invoke void @PyEval_RestoreThread(ptr noundef %22)
          to label %23 unwind label %24

23:                                               ; preds = %19
  invoke void @__cxa_rethrow() #32
          to label %41 unwind label %24

24:                                               ; preds = %23, %19
  %25 = landingpad { ptr, i32 }
          cleanup
  %26 = extractvalue { ptr, i32 } %25, 0
  store ptr %26, ptr %5, align 8
  %27 = extractvalue { ptr, i32 } %25, 1
  store i32 %27, ptr %6, align 4
  invoke void @__cxa_end_catch()
          to label %28 unwind label %38

28:                                               ; preds = %24
  br label %32

29:                                               ; preds = %10
  %30 = load ptr, ptr %4, align 8, !tbaa !299
  invoke void @PyEval_RestoreThread(ptr noundef %30)
          to label %31 unwind label %11

31:                                               ; preds = %29
  call void @llvm.lifetime.end.p0(i64 8, ptr %4) #24
  call void @_ZN8pybind1111error_scopeD2Ev(ptr noundef nonnull align 8 dereferenceable(24) %3) #24
  call void @llvm.lifetime.end.p0(i64 24, ptr %3) #24
  ret void

32:                                               ; preds = %28, %11
  call void @llvm.lifetime.end.p0(i64 8, ptr %4) #24
  call void @_ZN8pybind1111error_scopeD2Ev(ptr noundef nonnull align 8 dereferenceable(24) %3) #24
  call void @llvm.lifetime.end.p0(i64 24, ptr %3) #24
  br label %33

33:                                               ; preds = %32
  %34 = load ptr, ptr %5, align 8
  %35 = load i32, ptr %6, align 4
  %36 = insertvalue { ptr, i32 } poison, ptr %34, 0
  %37 = insertvalue { ptr, i32 } %36, i32 %35, 1
  resume { ptr, i32 } %37

38:                                               ; preds = %24
  %39 = landingpad { ptr, i32 }
          catch ptr null
  %40 = extractvalue { ptr, i32 } %39, 0
  call void @__clang_call_terminate(ptr %40) #29
  unreachable

41:                                               ; preds = %23
  unreachable
}